; Function Attrs: nounwind uwtable
define internal void @_ZThn16_N12_GLOBAL__N_153PoissonDistributionZTest_AbslPoissonDistribution_TestD0Ev(ptr noundef %this) unnamed_addr #14 align 2 personality ptr @__gxx_personality_v0 {
entry:
  %0 = getelementptr inbounds i8, ptr %this, i64 16
  %.val.i.i.i = load ptr, ptr %0, align 8
  %tobool.not.i.i.i.i.i.i.i = icmp eq ptr %.val.i.i.i, null
  br i1 %tobool.not.i.i.i.i.i.i.i, label %_ZN12_GLOBAL__N_153PoissonDistributionZTest_AbslPoissonDistribution_TestD0Ev.exit, label %if.then.i.i.i.i.i.i.i

if.then.i.i.i.i.i.i.i:                            ; preds = %entry
  tail call void @_ZdlPv(ptr noundef nonnull %.val.i.i.i) #34
  br label %_ZN12_GLOBAL__N_153PoissonDistributionZTest_AbslPoissonDistribution_TestD0Ev.exit

_ZN12_GLOBAL__N_153PoissonDistributionZTest_AbslPoissonDistribution_TestD0Ev.exit: ; preds = %entry, %if.then.i.i.i.i.i.i.i
  %1 = getelementptr inbounds i8, ptr %this, i64 -16
  tail call void @_ZN7testing4TestD2Ev(ptr noundef nonnull align 8 dereferenceable(16) %1) #33
  tail call void @_ZdlPv(ptr noundef nonnull %1) #34
  ret void
}